; Function Attrs: nounwind uwtable
define ptr @l_Lean_Elab_mkDeclName___rarg___lambda__4(ptr noundef %0, ptr noundef %1, ptr noundef %2, ptr noundef %3, ptr noundef %4, ptr noundef %5, ptr noundef %6, ptr noundef %7, ptr readnone captures(none) %8) local_unnamed_addr #0 {
  %10 = getelementptr inbounds nuw i8, ptr %0, i64 16
  %11 = load ptr, ptr %10, align 8, !tbaa !9
  %12 = ptrtoint ptr %11 to i64
  %13 = and i64 %12, 1
  %.not = icmp eq i64 %13, 0
  br i1 %.not, label %14, label %lean_inc.exit37

14:                                               ; preds = %9
  %.val.i = load i32, ptr %11, align 4, !tbaa !4
  %15 = icmp sgt i32 %.val.i, 0
  br i1 %15, label %16, label %18, !prof !13

16:                                               ; preds = %14
  %17 = add nuw i32 %.val.i, 1
  store i32 %17, ptr %11, align 4, !tbaa !4
  br label %lean_inc.exit37

18:                                               ; preds = %14
  %.not.i = icmp eq i32 %.val.i, 0
  br i1 %.not.i, label %lean_inc.exit37, label %19

19:                                               ; preds = %18
  tail call void @lean_inc_ref_cold(ptr noundef nonnull %11) #7
  br label %lean_inc.exit37

lean_inc.exit37:                                  ; preds = %19, %18, %16, %9
  %20 = ptrtoint ptr %3 to i64
  %21 = and i64 %20, 1
  %.not53 = icmp eq i64 %21, 0
  br i1 %.not53, label %22, label %lean_inc.exit36

22:                                               ; preds = %lean_inc.exit37
  %.val.i38 = load i32, ptr %3, align 4, !tbaa !4
  %23 = icmp sgt i32 %.val.i38, 0
  br i1 %23, label %24, label %26, !prof !13

24:                                               ; preds = %22
  %25 = add nuw i32 %.val.i38, 1
  store i32 %25, ptr %3, align 4, !tbaa !4
  br label %lean_inc.exit36

26:                                               ; preds = %22
  %.not.i39 = icmp eq i32 %.val.i38, 0
  br i1 %.not.i39, label %lean_inc.exit36, label %27

27:                                               ; preds = %26
  tail call void @lean_inc_ref_cold(ptr noundef nonnull %3) #7
  br label %lean_inc.exit36

lean_inc.exit36:                                  ; preds = %27, %26, %24, %lean_inc.exit37
  %28 = ptrtoint ptr %2 to i64
  %29 = and i64 %28, 1
  %.not54 = icmp eq i64 %29, 0
  br i1 %.not54, label %30, label %lean_inc.exit35

30:                                               ; preds = %lean_inc.exit36
  %.val.i41 = load i32, ptr %2, align 4, !tbaa !4
  %31 = icmp sgt i32 %.val.i41, 0
  br i1 %31, label %32, label %34, !prof !13

32:                                               ; preds = %30
  %33 = add nuw i32 %.val.i41, 1
  store i32 %33, ptr %2, align 4, !tbaa !4
  br label %lean_inc.exit35

34:                                               ; preds = %30
  %.not.i42 = icmp eq i32 %.val.i41, 0
  br i1 %.not.i42, label %lean_inc.exit35, label %35

35:                                               ; preds = %34
  tail call void @lean_inc_ref_cold(ptr noundef nonnull %2) #7
  br label %lean_inc.exit35

lean_inc.exit35:                                  ; preds = %35, %34, %32, %lean_inc.exit36
  %36 = ptrtoint ptr %1 to i64
  %37 = and i64 %36, 1
  %.not55 = icmp eq i64 %37, 0
  br i1 %.not55, label %38, label %lean_inc.exit34

38:                                               ; preds = %lean_inc.exit35
  %.val.i44 = load i32, ptr %1, align 4, !tbaa !4
  %39 = icmp sgt i32 %.val.i44, 0
  br i1 %39, label %40, label %42, !prof !13

40:                                               ; preds = %38
  %41 = add nuw i32 %.val.i44, 1
  store i32 %41, ptr %1, align 4, !tbaa !4
  br label %lean_inc.exit34

42:                                               ; preds = %38
  %.not.i45 = icmp eq i32 %.val.i44, 0
  br i1 %.not.i45, label %lean_inc.exit34, label %43

43:                                               ; preds = %42
  tail call void @lean_inc_ref_cold(ptr noundef nonnull %1) #7
  br label %lean_inc.exit34

lean_inc.exit34:                                  ; preds = %43, %42, %40, %lean_inc.exit35
  %44 = ptrtoint ptr %0 to i64
  %45 = and i64 %44, 1
  %.not56 = icmp eq i64 %45, 0
  br i1 %.not56, label %46, label %lean_inc.exit33

46:                                               ; preds = %lean_inc.exit34
  %.val.i47 = load i32, ptr %0, align 4, !tbaa !4
  %47 = icmp sgt i32 %.val.i47, 0
  br i1 %47, label %48, label %50, !prof !13

48:                                               ; preds = %46
  %49 = add nuw i32 %.val.i47, 1
  store i32 %49, ptr %0, align 4, !tbaa !4
  br label %lean_inc.exit33

50:                                               ; preds = %46
  %.not.i48 = icmp eq i32 %.val.i47, 0
  br i1 %.not.i48, label %lean_inc.exit33, label %51

51:                                               ; preds = %50
  tail call void @lean_inc_ref_cold(ptr noundef nonnull %0) #7
  br label %lean_inc.exit33

lean_inc.exit33:                                  ; preds = %51, %50, %48, %lean_inc.exit34
  %52 = tail call ptr @l_Lean_Elab_checkIfShadowingStructureField___rarg(ptr noundef nonnull %0, ptr noundef %1, ptr noundef %2, ptr noundef %3)
  br i1 %.not, label %53, label %lean_inc.exit

53:                                               ; preds = %lean_inc.exit33
  %.val.i50 = load i32, ptr %11, align 4, !tbaa !4
  %54 = icmp sgt i32 %.val.i50, 0
  br i1 %54, label %55, label %57, !prof !13

55:                                               ; preds = %53
  %56 = add nuw i32 %.val.i50, 1
  store i32 %56, ptr %11, align 4, !tbaa !4
  br label %lean_inc.exit

57:                                               ; preds = %53
  %.not.i51 = icmp eq i32 %.val.i50, 0
  br i1 %.not.i51, label %lean_inc.exit, label %58

58:                                               ; preds = %57
  tail call void @lean_inc_ref_cold(ptr noundef nonnull %11) #7
  br label %lean_inc.exit

lean_inc.exit:                                    ; preds = %58, %57, %55, %lean_inc.exit33
  tail call void @lean_inc_heartbeat() #7
  %59 = tail call noalias ptr @mi_malloc_small(i64 noundef 96) #7
  %60 = icmp eq ptr %59, null
  br i1 %60, label %61, label %lean_alloc_closure.exit

61:                                               ; preds = %lean_inc.exit
  tail call void @lean_internal_panic_out_of_memory() #8
  unreachable

lean_alloc_closure.exit:                          ; preds = %lean_inc.exit
  %62 = getelementptr inbounds nuw i8, ptr %59, i64 4
  store i32 1, ptr %59, align 4, !tbaa !4
  store i32 -184549280, ptr %62, align 4
  %63 = getelementptr inbounds nuw i8, ptr %59, i64 8
  store ptr @l_Lean_Elab_mkDeclName___rarg___lambda__3___boxed, ptr %63, align 8, !tbaa !9
  %64 = getelementptr inbounds nuw i8, ptr %59, i64 16
  store i16 10, ptr %64, align 8, !tbaa !14
  %65 = getelementptr inbounds nuw i8, ptr %59, i64 18
  store i16 9, ptr %65, align 2, !tbaa !14
  %66 = getelementptr inbounds nuw i8, ptr %59, i64 24
  store ptr %4, ptr %66, align 8, !tbaa !9
  %67 = getelementptr inbounds nuw i8, ptr %59, i64 32
  store ptr %0, ptr %67, align 8, !tbaa !9
  %68 = getelementptr inbounds nuw i8, ptr %59, i64 40
  store ptr %1, ptr %68, align 8, !tbaa !9
  %69 = getelementptr inbounds nuw i8, ptr %59, i64 48
  store ptr %2, ptr %69, align 8, !tbaa !9
  %70 = getelementptr inbounds nuw i8, ptr %59, i64 56
  store ptr %5, ptr %70, align 8, !tbaa !9
  %71 = getelementptr inbounds nuw i8, ptr %59, i64 64
  store ptr %3, ptr %71, align 8, !tbaa !9
  %72 = getelementptr inbounds nuw i8, ptr %59, i64 72
  store ptr %7, ptr %72, align 8, !tbaa !9
  %73 = getelementptr inbounds nuw i8, ptr %59, i64 80
  store ptr %6, ptr %73, align 8, !tbaa !9
  %74 = getelementptr inbounds nuw i8, ptr %59, i64 88
  store ptr %11, ptr %74, align 8, !tbaa !9
  %75 = tail call ptr @lean_apply_4(ptr noundef %11, ptr noundef nonnull inttoptr (i64 1 to ptr), ptr noundef nonnull inttoptr (i64 1 to ptr), ptr noundef %52, ptr noundef nonnull %59) #7
  ret ptr %75
}